; ModuleID = 'source-C-CXX/5/4140.cpp'
source_filename = "source-C-CXX/5/4140.cpp"
target datalayout = "e-m:e-p270:32:32-p271:32:32-p272:64:64-i64:64-f80:128-n8:16:32:64-S128"
target triple = "x86_64-pc-linux-gnu"

%"class.std::ios_base::Init" = type { i8 }
%"class.std::basic_istream" = type { i32 (...)**, i64, %"class.std::basic_ios" }
%"class.std::basic_ios" = type { %"class.std::ios_base", %"class.std::basic_ostream"*, i8, i8, %"class.std::basic_streambuf"*, %"class.std::ctype"*, %"class.std::num_put"*, %"class.std::num_get"* }
%"class.std::ios_base" = type { i32 (...)**, i64, i64, i32, i32, i32, %"struct.std::ios_base::_Callback_list"*, %"struct.std::ios_base::_Words", [8 x %"struct.std::ios_base::_Words"], i32, %"struct.std::ios_base::_Words"*, %"class.std::locale" }
%"struct.std::ios_base::_Callback_list" = type { %"struct.std::ios_base::_Callback_list"*, void (i32, %"class.std::ios_base"*, i32)*, i32, i32 }
%"struct.std::ios_base::_Words" = type { i8*, i64 }
%"class.std::locale" = type { %"class.std::locale::_Impl"* }
%"class.std::locale::_Impl" = type { i32, %"class.std::locale::facet"**, i64, %"class.std::locale::facet"**, i8** }
%"class.std::locale::facet" = type <{ i32 (...)**, i32, [4 x i8] }>
%"class.std::basic_ostream" = type { i32 (...)**, %"class.std::basic_ios" }
%"class.std::basic_streambuf" = type { i32 (...)**, i8*, i8*, i8*, i8*, i8*, i8*, %"class.std::locale" }
%"class.std::ctype" = type <{ %"class.std::locale::facet.base", [4 x i8], %struct.__locale_struct*, i8, [7 x i8], i32*, i32*, i16*, i8, [256 x i8], [256 x i8], i8, [6 x i8] }>
%"class.std::locale::facet.base" = type <{ i32 (...)**, i32 }>
%struct.__locale_struct = type { [13 x %struct.__locale_data*], i16*, i32*, i32*, [13 x i8*] }
%struct.__locale_data = type opaque
%"class.std::num_put" = type { %"class.std::locale::facet.base", [4 x i8] }
%"class.std::num_get" = type { %"class.std::locale::facet.base", [4 x i8] }

@_ZStL8__ioinit = internal global %"class.std::ios_base::Init" zeroinitializer, align 1
@__dso_handle = external hidden global i8
@_ZSt3cin = external global %"class.std::basic_istream", align 8
@_ZSt4cout = external global %"class.std::basic_ostream", align 8
@llvm.global_ctors = appending global [1 x { i32, void ()*, i8* }] [{ i32, void ()*, i8* } { i32 65535, void ()* @_GLOBAL__sub_I_4140.cpp, i8* null }]

declare void @_ZNSt8ios_base4InitC1Ev(%"class.std::ios_base::Init"* nonnull align 1 dereferenceable(1)) unnamed_addr #0

; Function Attrs: nounwind
declare void @_ZNSt8ios_base4InitD1Ev(%"class.std::ios_base::Init"* nonnull align 1 dereferenceable(1)) unnamed_addr #1

; Function Attrs: nofree nounwind
declare i32 @__cxa_atexit(void (i8*)*, i8*, i8*) local_unnamed_addr #2

; Function Attrs: mustprogress norecurse sspstrong uwtable
define dso_local i32 @main() local_unnamed_addr #3 {
  %1 = alloca i32, align 4
  %2 = alloca i32, align 4
  %3 = alloca i32, align 4
  %4 = alloca [100 x i32], align 16
  %5 = alloca [100 x i32], align 16
  %6 = bitcast [100 x i32]* %5 to i8*
  %7 = bitcast i32* %1 to i8*
  call void @llvm.lifetime.start.p0i8(i64 4, i8* nonnull %7) #8
  %8 = bitcast i32* %2 to i8*
  call void @llvm.lifetime.start.p0i8(i64 4, i8* nonnull %8) #8
  %9 = bitcast i32* %3 to i8*
  call void @llvm.lifetime.start.p0i8(i64 4, i8* nonnull %9) #8
  %10 = bitcast [100 x i32]* %4 to i8*
  call void @llvm.lifetime.start.p0i8(i64 400, i8* nonnull %10) #8
  call void @llvm.lifetime.start.p0i8(i64 400, i8* nonnull %6) #8
  %11 = call nonnull align 8 dereferenceable(16) %"class.std::basic_istream"* @_ZNSirsERi(%"class.std::basic_istream"* nonnull align 8 dereferenceable(16) @_ZSt3cin, i32* nonnull align 4 dereferenceable(4) %1)
  call void @llvm.memset.p0i8.i64(i8* noundef nonnull align 16 dereferenceable(400) %6, i8 0, i64 400, i1 false)
  %12 = load i32, i32* %1, align 4, !tbaa !5
  %13 = icmp sgt i32 %12, 0
  br i1 %13, label %16, label %78

14:                                               ; preds = %44
  %15 = icmp sgt i32 %46, 0
  br i1 %15, label %79, label %78

16:                                               ; preds = %0, %44
  %17 = phi i64 [ %45, %44 ], [ 0, %0 ]
  %18 = call nonnull align 8 dereferenceable(16) %"class.std::basic_istream"* @_ZNSirsERi(%"class.std::basic_istream"* nonnull align 8 dereferenceable(16) @_ZSt3cin, i32* nonnull align 4 dereferenceable(4) %2)
  %19 = call nonnull align 8 dereferenceable(16) %"class.std::basic_istream"* @_ZNSirsERi(%"class.std::basic_istream"* nonnull align 8 dereferenceable(16) %18, i32* nonnull align 4 dereferenceable(4) %3)
  %20 = getelementptr inbounds [100 x i32], [100 x i32]* %5, i64 0, i64 %17
  %21 = load i32, i32* %2, align 4, !tbaa !5
  %22 = icmp sgt i32 %21, 0
  %23 = load i32, i32* %3, align 4
  %24 = icmp sgt i32 %23, 0
  %25 = select i1 %22, i1 %24, i1 false
  br i1 %25, label %26, label %44

26:                                               ; preds = %16, %51
  %27 = phi i32 [ %52, %51 ], [ %21, %16 ]
  %28 = phi i32 [ %53, %51 ], [ %23, %16 ]
  %29 = phi i32 [ %54, %51 ], [ 0, %16 ]
  %30 = icmp sgt i32 %28, 0
  br i1 %30, label %31, label %51

31:                                               ; preds = %26
  %32 = icmp eq i32 %29, 0
  br i1 %32, label %33, label %56

33:                                               ; preds = %31, %33
  %34 = phi i64 [ %40, %33 ], [ 0, %31 ]
  %35 = getelementptr inbounds [100 x i32], [100 x i32]* %4, i64 0, i64 %34
  %36 = call nonnull align 8 dereferenceable(16) %"class.std::basic_istream"* @_ZNSirsERi(%"class.std::basic_istream"* nonnull align 8 dereferenceable(16) @_ZSt3cin, i32* nonnull align 4 dereferenceable(4) %35)
  %37 = load i32, i32* %20, align 4, !tbaa !5
  %38 = load i32, i32* %35, align 4, !tbaa !5
  %39 = add nsw i32 %38, %37
  store i32 %39, i32* %20, align 4, !tbaa !5
  %40 = add nuw nsw i64 %34, 1
  %41 = load i32, i32* %3, align 4, !tbaa !5
  %42 = sext i32 %41 to i64
  %43 = icmp slt i64 %40, %42
  br i1 %43, label %33, label %49, !llvm.loop !9

44:                                               ; preds = %51, %16
  %45 = add nuw nsw i64 %17, 1
  %46 = load i32, i32* %1, align 4, !tbaa !5
  %47 = sext i32 %46 to i64
  %48 = icmp slt i64 %45, %47
  br i1 %48, label %16, label %14, !llvm.loop !11

49:                                               ; preds = %33
  %50 = load i32, i32* %2, align 4, !tbaa !5
  br label %51

51:                                               ; preds = %74, %49, %26
  %52 = phi i32 [ %50, %49 ], [ %27, %26 ], [ %60, %74 ]
  %53 = phi i32 [ %41, %49 ], [ %28, %26 ], [ %65, %74 ]
  %54 = add nuw nsw i32 %29, 1
  %55 = icmp slt i32 %54, %52
  br i1 %55, label %26, label %44, !llvm.loop !12

56:                                               ; preds = %31, %74
  %57 = phi i64 [ %75, %74 ], [ 0, %31 ]
  %58 = getelementptr inbounds [100 x i32], [100 x i32]* %4, i64 0, i64 %57
  %59 = call nonnull align 8 dereferenceable(16) %"class.std::basic_istream"* @_ZNSirsERi(%"class.std::basic_istream"* nonnull align 8 dereferenceable(16) @_ZSt3cin, i32* nonnull align 4 dereferenceable(4) %58)
  %60 = load i32, i32* %2, align 4, !tbaa !5
  %61 = add nsw i32 %60, -1
  %62 = icmp eq i32 %29, %61
  %63 = icmp eq i64 %57, 0
  %64 = select i1 %62, i1 true, i1 %63
  %65 = load i32, i32* %3, align 4, !tbaa !5
  br i1 %64, label %70, label %66

66:                                               ; preds = %56
  %67 = add nsw i32 %65, -1
  %68 = zext i32 %67 to i64
  %69 = icmp eq i64 %57, %68
  br i1 %69, label %70, label %74

70:                                               ; preds = %56, %66
  %71 = load i32, i32* %20, align 4, !tbaa !5
  %72 = load i32, i32* %58, align 4, !tbaa !5
  %73 = add nsw i32 %72, %71
  store i32 %73, i32* %20, align 4, !tbaa !5
  br label %74

74:                                               ; preds = %66, %70
  %75 = add nuw nsw i64 %57, 1
  %76 = sext i32 %65 to i64
  %77 = icmp slt i64 %75, %76
  br i1 %77, label %56, label %51, !llvm.loop !9

78:                                               ; preds = %109, %0, %14
  call void @llvm.lifetime.end.p0i8(i64 400, i8* nonnull %6) #8
  call void @llvm.lifetime.end.p0i8(i64 400, i8* nonnull %10) #8
  call void @llvm.lifetime.end.p0i8(i64 4, i8* nonnull %9) #8
  call void @llvm.lifetime.end.p0i8(i64 4, i8* nonnull %8) #8
  call void @llvm.lifetime.end.p0i8(i64 4, i8* nonnull %7) #8
  ret i32 0

79:                                               ; preds = %14, %109
  %80 = phi i64 [ %113, %109 ], [ 0, %14 ]
  %81 = getelementptr inbounds [100 x i32], [100 x i32]* %5, i64 0, i64 %80
  %82 = load i32, i32* %81, align 4, !tbaa !5
  %83 = call nonnull align 8 dereferenceable(8) %"class.std::basic_ostream"* @_ZNSolsEi(%"class.std::basic_ostream"* nonnull align 8 dereferenceable(8) @_ZSt4cout, i32 %82)
  %84 = bitcast %"class.std::basic_ostream"* %83 to i8**
  %85 = load i8*, i8** %84, align 8, !tbaa !14
  %86 = getelementptr i8, i8* %85, i64 -24
  %87 = bitcast i8* %86 to i64*
  %88 = load i64, i64* %87, align 8
  %89 = bitcast %"class.std::basic_ostream"* %83 to i8*
  %90 = add nsw i64 %88, 240
  %91 = getelementptr inbounds i8, i8* %89, i64 %90
  %92 = bitcast i8* %91 to %"class.std::ctype"**
  %93 = load %"class.std::ctype"*, %"class.std::ctype"** %92, align 8, !tbaa !16
  %94 = icmp eq %"class.std::ctype"* %93, null
  br i1 %94, label %95, label %96

95:                                               ; preds = %79
  call void @_ZSt16__throw_bad_castv() #9
  unreachable

96:                                               ; preds = %79
  %97 = getelementptr inbounds %"class.std::ctype", %"class.std::ctype"* %93, i64 0, i32 8
  %98 = load i8, i8* %97, align 8, !tbaa !20
  %99 = icmp eq i8 %98, 0
  br i1 %99, label %103, label %100

100:                                              ; preds = %96
  %101 = getelementptr inbounds %"class.std::ctype", %"class.std::ctype"* %93, i64 0, i32 9, i64 10
  %102 = load i8, i8* %101, align 1, !tbaa !22
  br label %109

103:                                              ; preds = %96
  call void @_ZNKSt5ctypeIcE13_M_widen_initEv(%"class.std::ctype"* nonnull align 8 dereferenceable(570) %93)
  %104 = bitcast %"class.std::ctype"* %93 to i8 (%"class.std::ctype"*, i8)***
  %105 = load i8 (%"class.std::ctype"*, i8)**, i8 (%"class.std::ctype"*, i8)*** %104, align 8, !tbaa !14
  %106 = getelementptr inbounds i8 (%"class.std::ctype"*, i8)*, i8 (%"class.std::ctype"*, i8)** %105, i64 6
  %107 = load i8 (%"class.std::ctype"*, i8)*, i8 (%"class.std::ctype"*, i8)** %106, align 8
  %108 = call signext i8 %107(%"class.std::ctype"* nonnull align 8 dereferenceable(570) %93, i8 signext 10)
  br label %109

109:                                              ; preds = %100, %103
  %110 = phi i8 [ %102, %100 ], [ %108, %103 ]
  %111 = call nonnull align 8 dereferenceable(8) %"class.std::basic_ostream"* @_ZNSo3putEc(%"class.std::basic_ostream"* nonnull align 8 dereferenceable(8) %83, i8 signext %110)
  %112 = call nonnull align 8 dereferenceable(8) %"class.std::basic_ostream"* @_ZNSo5flushEv(%"class.std::basic_ostream"* nonnull align 8 dereferenceable(8) %111)
  %113 = add nuw nsw i64 %80, 1
  %114 = load i32, i32* %1, align 4, !tbaa !5
  %115 = sext i32 %114 to i64
  %116 = icmp slt i64 %113, %115
  br i1 %116, label %79, label %78, !llvm.loop !23
}

; Function Attrs: argmemonly mustprogress nofree nosync nounwind willreturn
declare void @llvm.lifetime.start.p0i8(i64 immarg, i8* nocapture) #4

declare nonnull align 8 dereferenceable(16) %"class.std::basic_istream"* @_ZNSirsERi(%"class.std::basic_istream"* nonnull align 8 dereferenceable(16), i32* nonnull align 4 dereferenceable(4)) local_unnamed_addr #0

; Function Attrs: argmemonly mustprogress nofree nosync nounwind willreturn
declare void @llvm.lifetime.end.p0i8(i64 immarg, i8* nocapture) #4

declare nonnull align 8 dereferenceable(8) %"class.std::basic_ostream"* @_ZNSolsEi(%"class.std::basic_ostream"* nonnull align 8 dereferenceable(8), i32) local_unnamed_addr #0

declare nonnull align 8 dereferenceable(8) %"class.std::basic_ostream"* @_ZNSo3putEc(%"class.std::basic_ostream"* nonnull align 8 dereferenceable(8), i8 signext) local_unnamed_addr #0

declare nonnull align 8 dereferenceable(8) %"class.std::basic_ostream"* @_ZNSo5flushEv(%"class.std::basic_ostream"* nonnull align 8 dereferenceable(8)) local_unnamed_addr #0

; Function Attrs: noreturn
declare void @_ZSt16__throw_bad_castv() local_unnamed_addr #5

declare void @_ZNKSt5ctypeIcE13_M_widen_initEv(%"class.std::ctype"* nonnull align 8 dereferenceable(570)) local_unnamed_addr #0

; Function Attrs: sspstrong uwtable
define internal void @_GLOBAL__sub_I_4140.cpp() #6 section ".text.startup" {
  tail call void @_ZNSt8ios_base4InitC1Ev(%"class.std::ios_base::Init"* nonnull align 1 dereferenceable(1) @_ZStL8__ioinit)
  %1 = tail call i32 @__cxa_atexit(void (i8*)* bitcast (void (%"class.std::ios_base::Init"*)* @_ZNSt8ios_base4InitD1Ev to void (i8*)*), i8* getelementptr inbounds (%"class.std::ios_base::Init", %"class.std::ios_base::Init"* @_ZStL8__ioinit, i64 0, i32 0), i8* nonnull @__dso_handle) #8
  ret void
}

; Function Attrs: argmemonly nofree nounwind willreturn writeonly
declare void @llvm.memset.p0i8.i64(i8* nocapture writeonly, i8, i64, i1 immarg) #7


!llvm.module.flags = !{!0, !1, !2, !3}
!llvm.ident = !{!4}

!0 = !{i32 1, !"wchar_size", i32 4}
!1 = !{i32 7, !"PIC Level", i32 2}
!2 = !{i32 7, !"PIE Level", i32 2}
!3 = !{i32 7, !"uwtable", i32 1}
!4 = !{!"clang version 13.0.0"}
!5 = !{!6, !6, i64 0}
!6 = !{!"int", !7, i64 0}
!7 = !{!"omnipotent char", !8, i64 0}
!8 = !{!"Simple C++ TBAA"}
!9 = distinct !{!9, !10}
!10 = !{!"llvm.loop.mustprogress"}
!11 = distinct !{!11, !10}
!12 = distinct !{!12, !10, !13}
!13 = !{!"llvm.loop.unswitch.partial.disable"}
!14 = !{!15, !15, i64 0}
!15 = !{!"vtable pointer", !8, i64 0}
!16 = !{!17, !18, i64 240}
!17 = !{!"_ZTSSt9basic_iosIcSt11char_traitsIcEE", !18, i64 216, !7, i64 224, !19, i64 225, !18, i64 232, !18, i64 240, !18, i64 248, !18, i64 256}
!18 = !{!"any pointer", !7, i64 0}
!19 = !{!"bool", !7, i64 0}
!20 = !{!21, !7, i64 56}
!21 = !{!"_ZTSSt5ctypeIcE", !18, i64 16, !19, i64 24, !18, i64 32, !18, i64 40, !18, i64 48, !7, i64 56, !7, i64 57, !7, i64 313, !7, i64 569}
!22 = !{!7, !7, i64 0}
!23 = distinct !{!23, !10}
